; Function Attrs: nounwind uwtable
define ptr @Java_com_sun_media_sound_PortMixer_nGetPortName(ptr noundef %0, ptr nocapture noundef readnone %1, i64 noundef %2, i32 noundef %3) local_unnamed_addr #0 {
  %5 = alloca [200 x i8], align 16
  store i8 0, ptr %5, align 16
  %.not = icmp eq i64 %2, 0
  br i1 %.not, label %9, label %6

6:                                                ; preds = %4
  %7 = inttoptr i64 %2 to ptr
  %8 = call i32 @PORT_GetPortName(ptr noundef nonnull %7, i32 noundef %3, ptr noundef nonnull %5, i32 noundef 200) #3
  br label %9

9:                                                ; preds = %6, %4
  %10 = load ptr, ptr %0, align 8
  %11 = getelementptr inbounds i8, ptr %10, i64 1336
  %12 = load ptr, ptr %11, align 8
  %13 = call ptr %12(ptr noundef nonnull %0, ptr noundef nonnull %5) #3
  ret ptr %13
}